target datalayout = "e-m:e-p270:32:32-p271:32:32-p272:64:64-i64:64-i128:128-f80:128-n8:16:32:64-S128"
target triple = "x86_64-pc-linux-gnu"

%"struct.vcpkg::Path" = type { %"class.std::__cxx11::basic_string" }
%"class.std::vector" = type { %"struct.std::_Vector_base" }
%"struct.std::_Vector_base" = type { %"struct.std::_Vector_base<std::__cxx11::basic_string<char>, std::allocator<std::__cxx11::basic_string<char>>>::_Vector_impl" }
%"struct.std::_Vector_base<std::__cxx11::basic_string<char>, std::allocator<std::__cxx11::basic_string<char>>>::_Vector_impl" = type { %"struct.std::_Vector_base<std::__cxx11::basic_string<char>, std::allocator<std::__cxx11::basic_string<char>>>::_Vector_impl_data" }
%"struct.std::_Vector_base<std::__cxx11::basic_string<char>, std::allocator<std::__cxx11::basic_string<char>>>::_Vector_impl_data" = type { ptr, ptr, ptr }
%"class.std::__cxx11::basic_string" = type { %"struct.std::__cxx11::basic_string<char>::_Alloc_hider", i64, %union.anon }
%"struct.std::__cxx11::basic_string<char>::_Alloc_hider" = type { ptr }
%union.anon = type { i64, [8 x i8] }
%"struct.vcpkg::LineInfo" = type { i32, ptr }
%"struct.vcpkg::Optional.16" = type { %"struct.vcpkg::details::OptionalStorage.17" }
%"struct.vcpkg::details::OptionalStorage.17" = type { %"struct.vcpkg::details::OptionalStorageDtor.18" }
%"struct.vcpkg::details::OptionalStorageDtor.18" = type { i8, %union.anon.19 }
%union.anon.19 = type { %"class.std::__cxx11::basic_string" }
%"struct.vcpkg::Optional" = type { %"struct.vcpkg::details::OptionalStorage" }
%"struct.vcpkg::details::OptionalStorage" = type { %"struct.vcpkg::details::OptionalStorageDtor" }
%"struct.vcpkg::details::OptionalStorageDtor" = type { i8, %union.anon.15 }
%union.anon.15 = type { %"struct.vcpkg::Path" }
%"class.std::vector.10" = type { %"struct.std::_Vector_base.11" }
%"struct.std::_Vector_base.11" = type { %"struct.std::_Vector_base<vcpkg::Path, std::allocator<vcpkg::Path>>::_Vector_impl" }
%"struct.std::_Vector_base<vcpkg::Path, std::allocator<vcpkg::Path>>::_Vector_impl" = type { %"struct.std::_Vector_base<vcpkg::Path, std::allocator<vcpkg::Path>>::_Vector_impl_data" }
%"struct.std::_Vector_base<vcpkg::Path, std::allocator<vcpkg::Path>>::_Vector_impl_data" = type { ptr, ptr, ptr }
%"struct.vcpkg::VcpkgPaths" = type { %"struct.vcpkg::Path", %"struct.vcpkg::Path", %"class.std::unique_ptr", ptr, ptr, ptr, %"struct.vcpkg::Path", %"struct.vcpkg::Path", %"struct.vcpkg::Path", %"struct.vcpkg::Path", %"struct.vcpkg::Path", %"struct.vcpkg::Path", %"struct.vcpkg::Path", %"struct.vcpkg::Path", %"class.std::vector.10", %"struct.vcpkg::OverlayPortPaths" }
%"class.std::unique_ptr" = type { %"struct.std::__uniq_ptr_data" }
%"struct.std::__uniq_ptr_data" = type { %"class.std::__uniq_ptr_impl" }
%"class.std::__uniq_ptr_impl" = type { %"class.std::tuple" }
%"class.std::tuple" = type { %"struct.std::_Tuple_impl" }
%"struct.std::_Tuple_impl" = type { %"struct.std::_Head_base.9" }
%"struct.std::_Head_base.9" = type { ptr }
%"struct.vcpkg::OverlayPortPaths" = type { %"struct.vcpkg::Optional", %"class.std::vector.10" }
%"struct.(anonymous namespace)::VcpkgPathsImplStage1" = type { %"struct.(anonymous namespace)::VcpkgPathsImplStage0", ptr, %"struct.vcpkg::FeatureFlagSettings", %"struct.vcpkg::Path", %"struct.vcpkg::BundleSettings", %"struct.vcpkg::AssetCachingSettings", %"struct.vcpkg::Path", %"struct.vcpkg::Path", %"struct.vcpkg::Path", %"struct.vcpkg::Path" }
%"struct.(anonymous namespace)::VcpkgPathsImplStage0" = type { %"struct.vcpkg::Lazy", %"struct.vcpkg::Lazy.47", %"struct.vcpkg::Lazy.54", %"struct.vcpkg::Lazy.62", %"struct.vcpkg::Optional.64" }
%"struct.vcpkg::Lazy" = type <{ %"struct.vcpkg::TripletDatabase", i8, [7 x i8] }>
%"struct.vcpkg::TripletDatabase" = type { %"struct.vcpkg::Path", %"struct.vcpkg::Path", %"class.std::vector.42" }
%"class.std::vector.42" = type { %"struct.std::_Vector_base.43" }
%"struct.std::_Vector_base.43" = type { %"struct.std::_Vector_base<vcpkg::TripletFile, std::allocator<vcpkg::TripletFile>>::_Vector_impl" }
%"struct.std::_Vector_base<vcpkg::TripletFile, std::allocator<vcpkg::TripletFile>>::_Vector_impl" = type { %"struct.std::_Vector_base<vcpkg::TripletFile, std::allocator<vcpkg::TripletFile>>::_Vector_impl_data" }
%"struct.std::_Vector_base<vcpkg::TripletFile, std::allocator<vcpkg::TripletFile>>::_Vector_impl_data" = type { ptr, ptr, ptr }
%"struct.vcpkg::Lazy.47" = type <{ %"struct.vcpkg::ToolsetsInformation", i8, [7 x i8] }>
%"struct.vcpkg::ToolsetsInformation" = type { %"class.std::vector.48" }
%"class.std::vector.48" = type { %"struct.std::_Vector_base.49" }
%"struct.std::_Vector_base.49" = type { %"struct.std::_Vector_base<vcpkg::Toolset, std::allocator<vcpkg::Toolset>>::_Vector_impl" }
%"struct.std::_Vector_base<vcpkg::Toolset, std::allocator<vcpkg::Toolset>>::_Vector_impl" = type { %"struct.std::_Vector_base<vcpkg::Toolset, std::allocator<vcpkg::Toolset>>::_Vector_impl_data" }
%"struct.std::_Vector_base<vcpkg::Toolset, std::allocator<vcpkg::Toolset>>::_Vector_impl_data" = type { ptr, ptr, ptr }
%"struct.vcpkg::Lazy.54" = type <{ %"class.std::map.55", i8, [7 x i8] }>
%"class.std::map.55" = type { %"class.std::_Rb_tree.56" }
%"class.std::_Rb_tree.56" = type { %"struct.std::_Rb_tree<std::__cxx11::basic_string<char>, std::pair<const std::__cxx11::basic_string<char>, std::__cxx11::basic_string<char>>, std::_Select1st<std::pair<const std::__cxx11::basic_string<char>, std::__cxx11::basic_string<char>>>, std::less<std::__cxx11::basic_string<char>>>::_Rb_tree_impl" }
%"struct.std::_Rb_tree<std::__cxx11::basic_string<char>, std::pair<const std::__cxx11::basic_string<char>, std::__cxx11::basic_string<char>>, std::_Select1st<std::pair<const std::__cxx11::basic_string<char>, std::__cxx11::basic_string<char>>>, std::less<std::__cxx11::basic_string<char>>>::_Rb_tree_impl" = type { [8 x i8], %"struct.std::_Rb_tree_header" }
%"struct.std::_Rb_tree_header" = type { %"struct.std::_Rb_tree_node_base", i64 }
%"struct.std::_Rb_tree_node_base" = type { i32, ptr, ptr, ptr }
%"struct.vcpkg::Lazy.62" = type <{ %"class.std::__cxx11::basic_string", i8, [7 x i8] }>
%"struct.vcpkg::Optional.64" = type { %"struct.vcpkg::details::OptionalStorage.65" }
%"struct.vcpkg::details::OptionalStorage.65" = type { %"struct.vcpkg::details::OptionalStorageDtor.66" }
%"struct.vcpkg::details::OptionalStorageDtor.66" = type { i8, [7 x i8], %union.anon.67 }
%union.anon.67 = type { %"struct.vcpkg::LockFile" }
%"struct.vcpkg::LockFile" = type <{ %"class.std::multimap", i8, [7 x i8] }>
%"class.std::multimap" = type { %"class.std::_Rb_tree.68" }
%"class.std::_Rb_tree.68" = type { %"struct.std::_Rb_tree<std::__cxx11::basic_string<char>, std::pair<const std::__cxx11::basic_string<char>, vcpkg::LockFile::EntryData>, std::_Select1st<std::pair<const std::__cxx11::basic_string<char>, vcpkg::LockFile::EntryData>>, std::less<void>>::_Rb_tree_impl" }
%"struct.std::_Rb_tree<std::__cxx11::basic_string<char>, std::pair<const std::__cxx11::basic_string<char>, vcpkg::LockFile::EntryData>, std::_Select1st<std::pair<const std::__cxx11::basic_string<char>, vcpkg::LockFile::EntryData>>, std::less<void>>::_Rb_tree_impl" = type { [8 x i8], %"struct.std::_Rb_tree_header" }
%"struct.vcpkg::FeatureFlagSettings" = type { i8, i8, i8, i8, i8 }
%"struct.vcpkg::BundleSettings" = type { i8, i8, %"struct.vcpkg::Optional.16", i32, %"struct.vcpkg::Optional.16" }
%"struct.vcpkg::AssetCachingSettings" = type { %"struct.vcpkg::Optional.16", %"class.std::vector", %"struct.vcpkg::Optional.16", %"class.std::vector", %"class.std::vector", i8, %"struct.vcpkg::Optional.16" }

@.str.8 = private unnamed_addr constant [119 x i8] c"generated/home/dtcxzyw/WorkSpace/Projects/compilers/llvm-opt-benchmark/bench/vcpkg/vcpkg-tool/src/vcpkg/vcpkgpaths.cpp\00", align 1

; Function Attrs: mustprogress nounwind uwtable
define linkonce_odr dso_local noundef nonnull align 8 dereferenceable(8) ptr @_ZNSt10_Head_baseILm0EPN5vcpkg14VcpkgPathsImplELb0EE7_M_headERKS3_(ptr noundef nonnull align 8 dereferenceable(8) %0) #5 comdat align 2 {
  %2 = alloca ptr, align 8
  store ptr %0, ptr %2, align 8, !tbaa !1289
  %3 = load ptr, ptr %2, align 8, !tbaa !1289
  %4 = getelementptr inbounds nuw %"struct.std::_Head_base.9", ptr %3, i32 0, i32 0
  ret ptr %4
}

; Function Attrs: mustprogress nounwind uwtable
define linkonce_odr dso_local noundef nonnull align 8 dereferenceable(8) ptr @_ZNSt11_Tuple_implILm0EJPN5vcpkg14VcpkgPathsImplESt14default_deleteIS1_EEE7_M_headERKS5_(ptr noundef nonnull align 8 dereferenceable(8) %0) #5 comdat align 2 {
  %2 = alloca ptr, align 8
  store ptr %0, ptr %2, align 8, !tbaa !1285
  %3 = load ptr, ptr %2, align 8, !tbaa !1285
  %4 = call noundef nonnull align 8 dereferenceable(8) ptr @_ZNSt10_Head_baseILm0EPN5vcpkg14VcpkgPathsImplELb0EE7_M_headERKS3_(ptr noundef nonnull align 8 dereferenceable(8) %3) #12
  ret ptr %4
}

; Function Attrs: mustprogress nounwind uwtable
define linkonce_odr dso_local noundef nonnull align 8 dereferenceable(8) ptr @_ZSt12__get_helperILm0EPN5vcpkg14VcpkgPathsImplEJSt14default_deleteIS1_EEERKT0_RKSt11_Tuple_implIXT_EJS5_DpT1_EE(ptr noundef nonnull align 8 dereferenceable(8) %0) #5 comdat {
  %2 = alloca ptr, align 8
  store ptr %0, ptr %2, align 8, !tbaa !1285
  %3 = load ptr, ptr %2, align 8, !tbaa !1285
  %4 = call noundef nonnull align 8 dereferenceable(8) ptr @_ZNSt11_Tuple_implILm0EJPN5vcpkg14VcpkgPathsImplESt14default_deleteIS1_EEE7_M_headERKS5_(ptr noundef nonnull align 8 dereferenceable(8) %3) #12
  ret ptr %4
}

; Function Attrs: mustprogress nounwind uwtable
define linkonce_odr dso_local noundef nonnull align 8 dereferenceable(8) ptr @_ZSt3getILm0EJPN5vcpkg14VcpkgPathsImplESt14default_deleteIS1_EEERKNSt13tuple_elementIXT_ESt5tupleIJDpT0_EEE4typeERKS9_(ptr noundef nonnull align 8 dereferenceable(8) %0) #5 comdat {
  %2 = alloca ptr, align 8
  store ptr %0, ptr %2, align 8, !tbaa !1283
  %3 = load ptr, ptr %2, align 8, !tbaa !1283
  %4 = call noundef nonnull align 8 dereferenceable(8) ptr @_ZSt12__get_helperILm0EPN5vcpkg14VcpkgPathsImplEJSt14default_deleteIS1_EEERKT0_RKSt11_Tuple_implIXT_EJS5_DpT1_EE(ptr noundef nonnull align 8 dereferenceable(8) %3) #12
  ret ptr %4
}

; Function Attrs: mustprogress nounwind uwtable
define linkonce_odr dso_local noundef ptr @_ZNKSt15__uniq_ptr_implIN5vcpkg14VcpkgPathsImplESt14default_deleteIS1_EE6_M_ptrEv(ptr noundef nonnull align 8 dereferenceable(8) %0) #5 comdat align 2 {
  %2 = alloca ptr, align 8
  store ptr %0, ptr %2, align 8, !tbaa !1281
  %3 = load ptr, ptr %2, align 8
  %4 = getelementptr inbounds nuw %"class.std::__uniq_ptr_impl", ptr %3, i32 0, i32 0
  %5 = call noundef nonnull align 8 dereferenceable(8) ptr @_ZSt3getILm0EJPN5vcpkg14VcpkgPathsImplESt14default_deleteIS1_EEERKNSt13tuple_elementIXT_ESt5tupleIJDpT0_EEE4typeERKS9_(ptr noundef nonnull align 8 dereferenceable(8) %4) #12
  %6 = load ptr, ptr %5, align 8, !tbaa !176
  ret ptr %6
}

; Function Attrs: mustprogress nounwind uwtable
define linkonce_odr dso_local noundef ptr @_ZNKSt10unique_ptrIN5vcpkg14VcpkgPathsImplESt14default_deleteIS1_EE3getEv(ptr noundef nonnull align 8 dereferenceable(8) %0) #5 comdat align 2 {
  %2 = alloca ptr, align 8
  store ptr %0, ptr %2, align 8, !tbaa !106
  %3 = load ptr, ptr %2, align 8
  %4 = getelementptr inbounds nuw %"class.std::unique_ptr", ptr %3, i32 0, i32 0
  %5 = call noundef ptr @_ZNKSt15__uniq_ptr_implIN5vcpkg14VcpkgPathsImplESt14default_deleteIS1_EE6_M_ptrEv(ptr noundef nonnull align 8 dereferenceable(8) %4) #12
  ret ptr %5
}

; Function Attrs: mustprogress nounwind uwtable
define linkonce_odr dso_local noundef ptr @_ZNKSt10unique_ptrIN5vcpkg14VcpkgPathsImplESt14default_deleteIS1_EEptEv(ptr noundef nonnull align 8 dereferenceable(8) %0) #5 comdat align 2 {
  %2 = alloca ptr, align 8
  store ptr %0, ptr %2, align 8, !tbaa !106
  %3 = load ptr, ptr %2, align 8
  %4 = call noundef ptr @_ZNKSt10unique_ptrIN5vcpkg14VcpkgPathsImplESt14default_deleteIS1_EE3getEv(ptr noundef nonnull align 8 dereferenceable(8) %3) #12
  ret ptr %4
}

; Function Attrs: mustprogress uwtable
define dso_local noundef zeroext i1 @_ZNK5vcpkg10VcpkgPaths29try_provision_vcpkg_artifactsEv(ptr noundef nonnull align 8 dereferenceable(440) %0) #0 align 2 {
  %2 = alloca i1, align 1
  %3 = alloca ptr, align 8
  %4 = alloca %"struct.vcpkg::LineInfo", align 8
  store ptr %0, ptr %3, align 8, !tbaa !20
  %5 = load ptr, ptr %3, align 8
  %6 = getelementptr inbounds nuw %"struct.vcpkg::VcpkgPaths", ptr %5, i32 0, i32 2
  %7 = call noundef ptr @_ZNKSt10unique_ptrIN5vcpkg14VcpkgPathsImplESt14default_deleteIS1_EEptEv(ptr noundef nonnull align 8 dereferenceable(8) %6) #12
  %8 = getelementptr inbounds nuw %"struct.(anonymous namespace)::VcpkgPathsImplStage1", ptr %7, i32 0, i32 4
  %9 = getelementptr inbounds nuw %"struct.vcpkg::BundleSettings", ptr %8, i32 0, i32 3
  %10 = load i32, ptr %9, align 8, !tbaa !235
  switch i32 %10, label %14 [
    i32 0, label %11
    i32 1, label %12
    i32 2, label %13
  ]

11:                                               ; preds = %1
  store i1 true, ptr %2, align 1
  br label %17

12:                                               ; preds = %1
  store i1 false, ptr %2, align 1
  br label %17

13:                                               ; preds = %1
  store i1 false, ptr %2, align 1
  br label %17

14:                                               ; preds = %1
  call void @llvm.lifetime.start.p0(i64 16, ptr %4) #12
  %15 = getelementptr inbounds nuw %"struct.vcpkg::LineInfo", ptr %4, i32 0, i32 0
  store i32 853, ptr %15, align 8, !tbaa !49
  %16 = getelementptr inbounds nuw %"struct.vcpkg::LineInfo", ptr %4, i32 0, i32 1
  store ptr @.str.8, ptr %16, align 8, !tbaa !52
  call void @_ZN5vcpkg6Checks11unreachableERKNS_8LineInfoE(ptr noundef nonnull align 8 dereferenceable(16) %4) #24
  unreachable

17:                                               ; preds = %13, %12, %11
  %18 = load i1, ptr %2, align 1
  ret i1 %18
}