; Function Attrs: mustprogress uwtable
define dso_local noundef zeroext i1 @_ZNK5vcpkg10VcpkgPaths29try_provision_vcpkg_artifactsEv(ptr noundef nonnull readonly align 8 captures(none) dereferenceable(440) %0) local_unnamed_addr #0 align 2 {
  %2 = alloca %"struct.vcpkg::LineInfo", align 8
  %3 = getelementptr inbounds nuw i8, ptr %0, i64 64
  %4 = load ptr, ptr %3, align 8, !tbaa !46
  %5 = getelementptr inbounds nuw i8, ptr %4, i64 384
  %6 = load i32, ptr %5, align 8, !tbaa !268
  %7 = icmp ult i32 %6, 3
  br i1 %7, label %switch.lookup, label %8

8:                                                ; preds = %1
  call void @llvm.lifetime.start.p0(i64 16, ptr nonnull %2) #28
  store i32 853, ptr %2, align 8, !tbaa !43
  %9 = getelementptr inbounds nuw i8, ptr %2, i64 8
  store ptr @.str.8, ptr %9, align 8, !tbaa !45
  call void @_ZN5vcpkg6Checks11unreachableERKNS_8LineInfoE(ptr noundef nonnull align 8 dereferenceable(16) %2) #30
  unreachable

switch.lookup:                                    ; preds = %1
  %switch.cast = trunc nuw i32 %6 to i3
  %switch.downshift = lshr i3 1, %switch.cast
  %switch.masked = trunc nuw i3 %switch.downshift to i1
  ret i1 %switch.masked
}